target datalayout = "e-m:e-p270:32:32-p271:32:32-p272:64:64-i64:64-i128:128-f80:128-n8:16:32:64-S128"
target triple = "x86_64-pc-linux-gnu"

%struct.H5P_genclass_t = type { ptr, ptr, i32, i64, i32, i32, i32, i8, i32, ptr, ptr, ptr, ptr, ptr, ptr, ptr }
%struct.H5P_genplist_t = type { ptr, i64, i64, i8, ptr, ptr }

@H5P_init_g = external global i8, align 1
@H5_libterm_g = external global i8, align 1

; Function Attrs: nounwind uwtable
define i32 @H5P_exist_plist(ptr noundef %0, ptr noundef %1) #0 {
  %3 = alloca i32, align 4
  %4 = alloca ptr, align 8
  %5 = alloca ptr, align 8
  %6 = alloca i32, align 4
  %7 = alloca ptr, align 8
  %8 = alloca i32, align 4
  store ptr %0, ptr %4, align 8, !tbaa !59
  store ptr %1, ptr %5, align 8, !tbaa !39
  call void @llvm.lifetime.start.p0(i64 4, ptr %6) #8
  store i32 -1, ptr %6, align 4, !tbaa !3
  %9 = load i8, ptr @H5P_init_g, align 1, !tbaa !7, !range !9, !noundef !10
  %10 = trunc i8 %9 to i1
  br i1 %10, label %15, label %11

11:                                               ; preds = %2
  %12 = load i8, ptr @H5_libterm_g, align 1, !tbaa !7, !range !9, !noundef !10
  %13 = trunc i8 %12 to i1
  %14 = xor i1 %13, true
  br label %15

15:                                               ; preds = %11, %2
  %16 = phi i1 [ true, %2 ], [ %14, %11 ]
  %17 = xor i1 %16, true
  %18 = xor i1 %17, true
  %19 = zext i1 %18 to i32
  %20 = sext i32 %19 to i64
  %21 = call i64 @llvm.expect.i64(i64 %20, i64 1)
  %22 = icmp ne i64 %21, 0
  br i1 %22, label %23, label %68

23:                                               ; preds = %15
  %24 = load ptr, ptr %4, align 8, !tbaa !59
  %25 = getelementptr inbounds nuw %struct.H5P_genplist_t, ptr %24, i32 0, i32 4
  %26 = load ptr, ptr %25, align 8, !tbaa !80
  %27 = load ptr, ptr %5, align 8, !tbaa !39
  %28 = call ptr @H5SL_search(ptr noundef %26, ptr noundef %27)
  %29 = icmp ne ptr %28, null
  br i1 %29, label %30, label %31

30:                                               ; preds = %23
  store i32 0, ptr %6, align 4, !tbaa !3
  br label %66

31:                                               ; preds = %23
  %32 = load ptr, ptr %4, align 8, !tbaa !59
  %33 = getelementptr inbounds nuw %struct.H5P_genplist_t, ptr %32, i32 0, i32 5
  %34 = load ptr, ptr %33, align 8, !tbaa !79
  %35 = load ptr, ptr %5, align 8, !tbaa !39
  %36 = call ptr @H5SL_search(ptr noundef %34, ptr noundef %35)
  %37 = icmp ne ptr %36, null
  br i1 %37, label %38, label %39

38:                                               ; preds = %31
  store i32 1, ptr %6, align 4, !tbaa !3
  br label %65

39:                                               ; preds = %31
  call void @llvm.lifetime.start.p0(i64 8, ptr %7) #8
  %40 = load ptr, ptr %4, align 8, !tbaa !59
  %41 = getelementptr inbounds nuw %struct.H5P_genplist_t, ptr %40, i32 0, i32 0
  %42 = load ptr, ptr %41, align 8, !tbaa !63
  store ptr %42, ptr %7, align 8, !tbaa !22
  br label %43

43:                                               ; preds = %57, %39
  %44 = load ptr, ptr %7, align 8, !tbaa !22
  %45 = icmp ne ptr %44, null
  br i1 %45, label %46, label %61

46:                                               ; preds = %43
  %47 = load ptr, ptr %7, align 8, !tbaa !22
  %48 = getelementptr inbounds nuw %struct.H5P_genclass_t, ptr %47, i32 0, i32 9
  %49 = load ptr, ptr %48, align 8, !tbaa !52
  %50 = load ptr, ptr %5, align 8, !tbaa !39
  %51 = call ptr @H5SL_search(ptr noundef %49, ptr noundef %50)
  %52 = icmp ne ptr %51, null
  br i1 %52, label %53, label %57

53:                                               ; preds = %46
  br label %54

54:                                               ; preds = %53
  store i32 1, ptr %6, align 4, !tbaa !3
  store i32 6, ptr %8, align 4
  br label %62

55:                                               ; No predecessors!
  br label %56

56:                                               ; preds = %55
  br label %57

57:                                               ; preds = %56, %46
  %58 = load ptr, ptr %7, align 8, !tbaa !22
  %59 = getelementptr inbounds nuw %struct.H5P_genclass_t, ptr %58, i32 0, i32 0
  %60 = load ptr, ptr %59, align 8, !tbaa !41
  store ptr %60, ptr %7, align 8, !tbaa !22
  br label %43, !llvm.loop !108

61:                                               ; preds = %43
  store i32 0, ptr %6, align 4, !tbaa !3
  store i32 0, ptr %8, align 4
  br label %62

62:                                               ; preds = %54, %61
  call void @llvm.lifetime.end.p0(i64 8, ptr %7) #8
  %63 = load i32, ptr %8, align 4
  switch i32 %63, label %70 [
    i32 0, label %64
    i32 6, label %67
  ]

64:                                               ; preds = %62
  br label %65

65:                                               ; preds = %64, %38
  br label %66

66:                                               ; preds = %65, %30
  br label %67

67:                                               ; preds = %66, %62
  br label %68

68:                                               ; preds = %67, %15
  %69 = load i32, ptr %6, align 4, !tbaa !3
  store i32 %69, ptr %3, align 4
  store i32 1, ptr %8, align 4
  br label %70

70:                                               ; preds = %68, %62
  call void @llvm.lifetime.end.p0(i64 4, ptr %6) #8
  %71 = load i32, ptr %3, align 4
  ret i32 %71
}