; Function Attrs: nounwind uwtable
define range(i32 -1, 2) i32 @H5P_exist_plist(ptr noundef readonly captures(none) %0, ptr noundef %1) local_unnamed_addr #0 {
  %3 = load i8, ptr @H5P_init_g, align 1, !tbaa !3, !range !7, !noundef !8
  %4 = trunc nuw i8 %3 to i1
  %5 = load i8, ptr @H5_libterm_g, align 1, !range !7
  %6 = trunc nuw i8 %5 to i1
  %7 = xor i1 %6, true
  %8 = select i1 %4, i1 true, i1 %7
  br i1 %8, label %9, label %.loopexit, !prof !9

9:                                                ; preds = %2
  %10 = getelementptr inbounds nuw i8, ptr %0, i64 32
  %11 = load ptr, ptr %10, align 8, !tbaa !59
  %12 = tail call ptr @H5SL_search(ptr noundef %11, ptr noundef %1) #14
  %.not = icmp eq ptr %12, null
  br i1 %.not, label %13, label %.loopexit

13:                                               ; preds = %9
  %14 = getelementptr inbounds nuw i8, ptr %0, i64 40
  %15 = load ptr, ptr %14, align 8, !tbaa !58
  %16 = tail call ptr @H5SL_search(ptr noundef %15, ptr noundef %1) #14
  %.not14 = icmp eq ptr %16, null
  br i1 %.not14, label %.preheader, label %.loopexit

.preheader:                                       ; preds = %13, %17
  %.011.in = phi ptr [ %.011, %17 ], [ %0, %13 ]
  %.011 = load ptr, ptr %.011.in, align 8, !tbaa !22
  %.not15 = icmp eq ptr %.011, null
  br i1 %.not15, label %.loopexit, label %17

17:                                               ; preds = %.preheader
  %18 = getelementptr inbounds nuw i8, ptr %.011, i64 56
  %19 = load ptr, ptr %18, align 8, !tbaa !47
  %20 = tail call ptr @H5SL_search(ptr noundef %19, ptr noundef %1) #14
  %.not16 = icmp eq ptr %20, null
  br i1 %.not16, label %.preheader, label %.loopexit, !llvm.loop !98

.loopexit:                                        ; preds = %17, %.preheader, %2, %9, %13
  %.013 = phi i32 [ -1, %2 ], [ 0, %9 ], [ 1, %13 ], [ 0, %.preheader ], [ 1, %17 ]
  ret i32 %.013
}